; Function Attrs: mustprogress uwtable
define void @_ZN7rocksdb8Iterator11GetPropertyENSt7__cxx1112basic_stringIcSt11char_traitsIcESaIcEEEPS6_(ptr dead_on_unwind noalias writable sret(%"class.rocksdb::Status") align 8 %0, ptr nonnull readnone align 8 captures(none) %1, ptr noundef %2, ptr noundef %3) unnamed_addr #1 align 2 personality ptr @__gxx_personality_v0 {
  %5 = alloca %"class.rocksdb::Slice", align 8
  %6 = alloca %"class.rocksdb::Slice", align 8
  %7 = alloca %"class.rocksdb::Slice", align 8
  %8 = alloca %"class.rocksdb::Slice", align 8
  %9 = icmp eq ptr %3, null
  br i1 %9, label %10, label %13

10:                                               ; preds = %4
  call void @llvm.lifetime.start.p0(i64 16, ptr nonnull %5) #14
  store ptr @.str, ptr %5, align 8, !tbaa !49
  %11 = getelementptr inbounds nuw i8, ptr %5, i64 8
  store i64 15, ptr %11, align 8, !tbaa !52
  call void @llvm.lifetime.start.p0(i64 16, ptr nonnull %6) #14
  store ptr @.str.5, ptr %6, align 8, !tbaa !49
  %12 = getelementptr inbounds nuw i8, ptr %6, i64 8
  store i64 0, ptr %12, align 8, !tbaa !52
  call void @_ZN7rocksdb6StatusC2ENS0_4CodeENS0_7SubCodeERKNS_5SliceES5_NS0_8SeverityE(ptr noundef nonnull align 8 dereferenceable(16) %0, i8 noundef zeroext 4, i8 noundef zeroext 0, ptr noundef nonnull align 8 dereferenceable(16) %5, ptr noundef nonnull align 8 dereferenceable(16) %6, i8 noundef zeroext 0)
  call void @llvm.lifetime.end.p0(i64 16, ptr nonnull %6) #14
  call void @llvm.lifetime.end.p0(i64 16, ptr nonnull %5) #14
  br label %32

13:                                               ; preds = %4
  %14 = tail call noundef i32 @_ZNKSt7__cxx1112basic_stringIcSt11char_traitsIcESaIcEE7compareEPKc(ptr noundef nonnull align 8 dereferenceable(32) %2, ptr noundef nonnull @.str.1) #14
  %15 = icmp eq i32 %14, 0
  br i1 %15, label %16, label %21

16:                                               ; preds = %13
  %17 = getelementptr inbounds nuw i8, ptr %3, i64 8
  %18 = load i64, ptr %17, align 8, !tbaa !53
  %19 = tail call noundef nonnull align 8 dereferenceable(32) ptr @_ZNSt7__cxx1112basic_stringIcSt11char_traitsIcESaIcEE10_M_replaceEmmPKcm(ptr noundef nonnull align 8 dereferenceable(32) %3, i64 noundef 0, i64 noundef %18, ptr noundef nonnull @.str.2, i64 noundef 1)
  %20 = getelementptr inbounds nuw i8, ptr %0, i64 8
  store ptr null, ptr %20, align 8, !tbaa !29, !alias.scope !56
  tail call void @llvm.memset.p0.i64(ptr noundef nonnull align 8 dereferenceable(16) %0, i8 0, i64 6, i1 false), !alias.scope !56
  br label %32

21:                                               ; preds = %13
  %22 = tail call noundef i32 @_ZNKSt7__cxx1112basic_stringIcSt11char_traitsIcESaIcEE7compareEPKc(ptr noundef nonnull align 8 dereferenceable(32) %2, ptr noundef nonnull @.str.3) #14
  %23 = icmp eq i32 %22, 0
  br i1 %23, label %24, label %29

24:                                               ; preds = %21
  %25 = getelementptr inbounds nuw i8, ptr %3, i64 8
  %26 = load i64, ptr %25, align 8, !tbaa !53
  %27 = tail call noundef nonnull align 8 dereferenceable(32) ptr @_ZNSt7__cxx1112basic_stringIcSt11char_traitsIcESaIcEE10_M_replaceEmmPKcm(ptr noundef nonnull align 8 dereferenceable(32) %3, i64 noundef 0, i64 noundef %26, ptr noundef nonnull @.str.2, i64 noundef 1)
  %28 = getelementptr inbounds nuw i8, ptr %0, i64 8
  store ptr null, ptr %28, align 8, !tbaa !29, !alias.scope !59
  tail call void @llvm.memset.p0.i64(ptr noundef nonnull align 8 dereferenceable(16) %0, i8 0, i64 6, i1 false), !alias.scope !59
  br label %32

29:                                               ; preds = %21
  call void @llvm.lifetime.start.p0(i64 16, ptr nonnull %7) #14
  store ptr @.str.4, ptr %7, align 8, !tbaa !49
  %30 = getelementptr inbounds nuw i8, ptr %7, i64 8
  store i64 22, ptr %30, align 8, !tbaa !52
  call void @llvm.lifetime.start.p0(i64 16, ptr nonnull %8) #14
  store ptr @.str.5, ptr %8, align 8, !tbaa !49
  %31 = getelementptr inbounds nuw i8, ptr %8, i64 8
  store i64 0, ptr %31, align 8, !tbaa !52
  call void @_ZN7rocksdb6StatusC2ENS0_4CodeENS0_7SubCodeERKNS_5SliceES5_NS0_8SeverityE(ptr noundef nonnull align 8 dereferenceable(16) %0, i8 noundef zeroext 4, i8 noundef zeroext 0, ptr noundef nonnull align 8 dereferenceable(16) %7, ptr noundef nonnull align 8 dereferenceable(16) %8, i8 noundef zeroext 0)
  call void @llvm.lifetime.end.p0(i64 16, ptr nonnull %8) #14
  call void @llvm.lifetime.end.p0(i64 16, ptr nonnull %7) #14
  br label %32

32:                                               ; preds = %29, %24, %16, %10
  ret void
}